; Function Attrs: uwtable
define hidden i32 @_ZThn48_N2pb6solver11internalizeEP4exprbb(ptr noundef %0, ptr noundef %1, i1 noundef zeroext %2, i1 noundef zeroext %3) unnamed_addr #4 align 2 {
  %5 = getelementptr inbounds i8, ptr %0, i64 -48
  %6 = getelementptr inbounds nuw i8, ptr %1, i64 4
  %7 = load i32, ptr %6, align 4
  %8 = and i32 %7, 65535
  %9 = icmp eq i32 %8, 0
  br i1 %9, label %10, label %_ZNK7pb_util5is_pbEP4expr.exit.thread.i

10:                                               ; preds = %4
  %11 = getelementptr inbounds nuw i8, ptr %1, i64 16
  %12 = load ptr, ptr %11, align 8, !tbaa !6
  %13 = getelementptr inbounds nuw i8, ptr %12, i64 24
  %14 = load ptr, ptr %13, align 8, !tbaa !15
  %15 = icmp eq ptr %14, null
  br i1 %15, label %_ZNK7pb_util5is_pbEP4expr.exit.i, label %16

16:                                               ; preds = %10
  %17 = load i32, ptr %14, align 8, !tbaa !20
  br label %_ZNK7pb_util5is_pbEP4expr.exit.i

_ZNK7pb_util5is_pbEP4expr.exit.i:                 ; preds = %16, %10
  %18 = phi i32 [ %17, %16 ], [ -1, %10 ]
  %19 = getelementptr inbounds nuw i8, ptr %0, i64 56
  %20 = load i32, ptr %19, align 8, !tbaa !25
  %21 = icmp eq i32 %18, %20
  br i1 %21, label %22, label %_ZNK7pb_util5is_pbEP4expr.exit.thread.i

22:                                               ; preds = %_ZNK7pb_util5is_pbEP4expr.exit.i
  %23 = tail call i32 @_ZN2pb6solver14internalize_pbEP4exprbb(ptr noundef nonnull align 8 dereferenceable(1049) %5, ptr noundef nonnull %1, i1 noundef zeroext %2, i1 noundef zeroext %3)
  %24 = getelementptr inbounds nuw i8, ptr %0, i64 120
  %25 = load ptr, ptr %24, align 8, !tbaa !34
  %.not.i = icmp eq ptr %25, null
  %brmerge.i = or i1 %3, %.not.i
  br i1 %brmerge.i, label %_ZN2pb6solver11internalizeEP4exprbb.exit, label %26

26:                                               ; preds = %22
  %.not9.i = icmp eq i32 %23, -2
  br i1 %.not9.i, label %_ZN2pb6solver11internalizeEP4exprbb.exit, label %27

27:                                               ; preds = %26
  %28 = and i32 %23, -2
  %29 = tail call i32 @_ZN3euf6solver10attach_litEN3sat7literalEP4expr(ptr noundef nonnull align 8 dereferenceable(8456) %25, i32 %28, ptr noundef nonnull %1)
  br label %_ZN2pb6solver11internalizeEP4exprbb.exit

_ZNK7pb_util5is_pbEP4expr.exit.thread.i:          ; preds = %_ZNK7pb_util5is_pbEP4expr.exit.i, %4
  tail call void @_Z26notify_assertion_violationPKciS0_(ptr noundef nonnull @.str, i32 noundef 36, ptr noundef nonnull @.str.1)
  tail call void @_Z18invoke_exit_actionj(i32 noundef 114)
  br label %_ZN2pb6solver11internalizeEP4exprbb.exit

_ZN2pb6solver11internalizeEP4exprbb.exit:         ; preds = %22, %26, %27, %_ZNK7pb_util5is_pbEP4expr.exit.thread.i
  %.sroa.06.0.i = phi i32 [ %23, %22 ], [ %23, %27 ], [ -2, %26 ], [ -2, %_ZNK7pb_util5is_pbEP4expr.exit.thread.i ]
  ret i32 %.sroa.06.0.i
}